target datalayout = "e-m:e-p270:32:32-p271:32:32-p272:64:64-i64:64-i128:128-f80:128-n8:16:32:64-S128"
target triple = "x86_64-pc-linux-gnu"

%struct.darktable_t = type { %struct.dt_codepath_t, i32, i32, ptr, ptr, ptr, ptr, ptr, ptr, ptr, ptr, ptr, ptr, ptr, ptr, ptr, ptr, ptr, ptr, ptr, ptr, ptr, ptr, ptr, ptr, ptr, ptr, ptr, ptr, ptr, [64 x %struct.dt_pthread_mutex_t], %struct.dt_pthread_mutex_t, %struct.dt_pthread_mutex_t, %struct.dt_pthread_mutex_t, %struct.dt_pthread_mutex_t, %struct.dt_pthread_mutex_t, ptr, ptr, ptr, ptr, ptr, ptr, ptr, ptr, ptr, ptr, ptr, ptr, ptr, %struct.dt_lua_state_t, ptr, double, ptr, i32, [47 x i32], i32, i32, ptr, ptr, %struct.dt_sys_resources_t, %struct.dt_backthumb_t, %struct.dt_gimp_t }
%struct.dt_codepath_t = type { i8, [3 x i8] }
%struct.dt_pthread_mutex_t = type { %union.pthread_mutex_t }
%union.pthread_mutex_t = type { %struct.__pthread_mutex_s }
%struct.__pthread_mutex_s = type { i32, i32, i32, i32, i32, i16, i16, %struct.__pthread_internal_list }
%struct.__pthread_internal_list = type { ptr, ptr }
%struct.dt_lua_state_t = type { i32 }
%struct.dt_sys_resources_t = type { i64, i64, ptr, ptr, i32 }
%struct.dt_backthumb_t = type { double, double, i32, i32, i32, i32 }
%struct.dt_gimp_t = type { i32, ptr, ptr, i32, i32 }
%struct.dt_iop_module_t = type { i32, ptr, ptr, ptr, ptr, ptr, ptr, ptr, ptr, ptr, ptr, ptr, ptr, ptr, ptr, ptr, ptr, ptr, ptr, ptr, ptr, ptr, ptr, ptr, ptr, ptr, ptr, ptr, ptr, ptr, ptr, ptr, ptr, ptr, ptr, ptr, ptr, ptr, ptr, ptr, ptr, ptr, ptr, ptr, ptr, ptr, ptr, ptr, ptr, ptr, ptr, ptr, ptr, ptr, ptr, ptr, ptr, [20 x i8], i32, i32, i32, i32, i32, i32, i32, [8 x i8], [4 x float], [4 x float], [4 x float], [4 x float], [4 x float], [4 x float], ptr, %struct.dt_dev_histogram_stats_t, [4 x i32], i32, i32, ptr, i32, i32, ptr, ptr, i32, ptr, %struct.dt_pthread_mutex_t, ptr, ptr, ptr, ptr, %struct.anon, ptr, ptr, ptr, ptr, ptr, ptr, ptr, i32, ptr, ptr, ptr, ptr, ptr, ptr, ptr, i32, ptr, i32, [128 x i8], i32, ptr, ptr, i32, [12 x i8] }
%struct.dt_dev_histogram_stats_t = type { i32, i64, i32, i32 }
%struct.anon = type { %struct.anon.0, %struct.anon.1 }
%struct.anon.0 = type { ptr, ptr }
%struct.anon.1 = type { ptr, i32 }
%struct.dt_iop_rgblevels_gui_data_t = type { %struct.dt_iop_rgblevels_params_t, ptr, ptr, ptr, ptr, ptr, ptr, i32, i32, float, float, float, float, [4 x float], i32, double, double, i32, i32, float, i32, float, ptr, ptr, ptr }
%struct.dt_iop_rgblevels_params_t = type { i32, i32, [3 x [3 x float]] }

@darktable = external global %struct.darktable_t, align 8

; Function Attrs: nounwind uwtable
define internal void @_rgblevels_move_handle(ptr noundef %0, i32 noundef %1, float noundef %2, ptr noundef %3, float noundef %4) #0 {
  %6 = alloca ptr, align 8
  %7 = alloca i32, align 4
  %8 = alloca float, align 4
  %9 = alloca ptr, align 8
  %10 = alloca float, align 4
  %11 = alloca ptr, align 8
  %12 = alloca float, align 4
  %13 = alloca float, align 4
  %14 = alloca i32, align 4
  store ptr %0, ptr %6, align 8, !tbaa !6
  store i32 %1, ptr %7, align 4, !tbaa !19
  store float %2, ptr %8, align 4, !tbaa !15
  store ptr %3, ptr %9, align 8, !tbaa !243
  store float %4, ptr %10, align 4, !tbaa !15
  call void @llvm.lifetime.start.p0(i64 8, ptr %11) #13
  %15 = load ptr, ptr %6, align 8, !tbaa !6
  %16 = getelementptr inbounds nuw %struct.dt_iop_module_t, ptr %15, i32 0, i32 83
  %17 = load ptr, ptr %16, align 16, !tbaa !21
  store ptr %17, ptr %11, align 8, !tbaa !37
  call void @llvm.lifetime.start.p0(i64 4, ptr %12) #13
  store float 0.000000e+00, ptr %12, align 4, !tbaa !15
  call void @llvm.lifetime.start.p0(i64 4, ptr %13) #13
  store float 1.000000e+00, ptr %13, align 4, !tbaa !15
  %18 = load i32, ptr %7, align 4, !tbaa !19
  %19 = icmp slt i32 %18, 0
  br i1 %19, label %23, label %20

20:                                               ; preds = %5
  %21 = load i32, ptr %7, align 4, !tbaa !19
  %22 = icmp sgt i32 %21, 2
  br i1 %22, label %23, label %24

23:                                               ; preds = %20, %5
  store i32 1, ptr %14, align 4
  br label %133

24:                                               ; preds = %20
  %25 = load ptr, ptr %9, align 8, !tbaa !243
  %26 = icmp eq ptr %25, null
  br i1 %26, label %27, label %28

27:                                               ; preds = %24
  store i32 1, ptr %14, align 4
  br label %133

28:                                               ; preds = %24
  %29 = load i32, ptr %7, align 4, !tbaa !19
  switch i32 %29, label %95 [
    i32 0, label %30
    i32 1, label %56
    i32 2, label %69
  ]

30:                                               ; preds = %28
  %31 = load ptr, ptr %9, align 8, !tbaa !243
  %32 = getelementptr inbounds float, ptr %31, i64 2
  %33 = load float, ptr %32, align 4, !tbaa !15
  %34 = fpext reassoc nsz arcp contract afn float %33 to double
  %35 = load float, ptr %10, align 4, !tbaa !15
  %36 = fpext reassoc nsz arcp contract afn float %35 to double
  %37 = fdiv reassoc nsz arcp contract afn double 5.000000e-02, %36
  %38 = fsub reassoc nsz arcp contract afn double %34, %37
  %39 = fptrunc reassoc nsz arcp contract afn double %38 to float
  %40 = call reassoc nsz arcp contract afn float @llvm.minnum.f32(float %39, float 1.000000e+00)
  store float %40, ptr %13, align 4, !tbaa !15
  %41 = load ptr, ptr %9, align 8, !tbaa !243
  %42 = getelementptr inbounds float, ptr %41, i64 2
  %43 = load float, ptr %42, align 4, !tbaa !15
  %44 = load float, ptr %10, align 4, !tbaa !15
  %45 = fsub reassoc nsz arcp contract afn float 1.000000e+00, %44
  %46 = fmul reassoc nsz arcp contract afn float %43, %45
  %47 = fpext reassoc nsz arcp contract afn float %46 to double
  %48 = fsub reassoc nsz arcp contract afn double %47, 5.000000e-02
  %49 = load float, ptr %10, align 4, !tbaa !15
  %50 = fsub reassoc nsz arcp contract afn float 1.000000e+00, %49
  %51 = fpext reassoc nsz arcp contract afn float %50 to double
  %52 = fdiv reassoc nsz arcp contract afn double %48, %51
  %53 = fptrunc reassoc nsz arcp contract afn double %52 to float
  %54 = load float, ptr %13, align 4, !tbaa !15
  %55 = call reassoc nsz arcp contract afn float @llvm.minnum.f32(float %53, float %54)
  store float %55, ptr %13, align 4, !tbaa !15
  br label %95

56:                                               ; preds = %28
  %57 = load ptr, ptr %9, align 8, !tbaa !243
  %58 = getelementptr inbounds float, ptr %57, i64 0
  %59 = load float, ptr %58, align 4, !tbaa !15
  %60 = fpext reassoc nsz arcp contract afn float %59 to double
  %61 = fadd reassoc nsz arcp contract afn double %60, 5.000000e-02
  %62 = fptrunc reassoc nsz arcp contract afn double %61 to float
  store float %62, ptr %12, align 4, !tbaa !15
  %63 = load ptr, ptr %9, align 8, !tbaa !243
  %64 = getelementptr inbounds float, ptr %63, i64 2
  %65 = load float, ptr %64, align 4, !tbaa !15
  %66 = fpext reassoc nsz arcp contract afn float %65 to double
  %67 = fsub reassoc nsz arcp contract afn double %66, 5.000000e-02
  %68 = fptrunc reassoc nsz arcp contract afn double %67 to float
  store float %68, ptr %13, align 4, !tbaa !15
  br label %95

69:                                               ; preds = %28
  %70 = load float, ptr %10, align 4, !tbaa !15
  %71 = fpext reassoc nsz arcp contract afn float %70 to double
  %72 = fdiv reassoc nsz arcp contract afn double 5.000000e-02, %71
  %73 = load ptr, ptr %9, align 8, !tbaa !243
  %74 = getelementptr inbounds float, ptr %73, i64 0
  %75 = load float, ptr %74, align 4, !tbaa !15
  %76 = fpext reassoc nsz arcp contract afn float %75 to double
  %77 = fadd reassoc nsz arcp contract afn double %72, %76
  %78 = fptrunc reassoc nsz arcp contract afn double %77 to float
  %79 = call reassoc nsz arcp contract afn float @llvm.maxnum.f32(float %78, float 0.000000e+00)
  store float %79, ptr %12, align 4, !tbaa !15
  %80 = load ptr, ptr %9, align 8, !tbaa !243
  %81 = getelementptr inbounds float, ptr %80, i64 0
  %82 = load float, ptr %81, align 4, !tbaa !15
  %83 = load float, ptr %10, align 4, !tbaa !15
  %84 = fsub reassoc nsz arcp contract afn float 1.000000e+00, %83
  %85 = fmul reassoc nsz arcp contract afn float %82, %84
  %86 = fpext reassoc nsz arcp contract afn float %85 to double
  %87 = fadd reassoc nsz arcp contract afn double %86, 5.000000e-02
  %88 = load float, ptr %10, align 4, !tbaa !15
  %89 = fsub reassoc nsz arcp contract afn float 1.000000e+00, %88
  %90 = fpext reassoc nsz arcp contract afn float %89 to double
  %91 = fdiv reassoc nsz arcp contract afn double %87, %90
  %92 = fptrunc reassoc nsz arcp contract afn double %91 to float
  %93 = load float, ptr %12, align 4, !tbaa !15
  %94 = call reassoc nsz arcp contract afn float @llvm.maxnum.f32(float %92, float %93)
  store float %94, ptr %12, align 4, !tbaa !15
  br label %95

95:                                               ; preds = %28, %69, %56, %30
  %96 = load float, ptr %13, align 4, !tbaa !15
  %97 = load float, ptr %12, align 4, !tbaa !15
  %98 = load float, ptr %8, align 4, !tbaa !15
  %99 = call reassoc nsz arcp contract afn float @llvm.maxnum.f32(float %97, float %98)
  %100 = call reassoc nsz arcp contract afn float @llvm.minnum.f32(float %96, float %99)
  %101 = load ptr, ptr %9, align 8, !tbaa !243
  %102 = load i32, ptr %7, align 4, !tbaa !19
  %103 = sext i32 %102 to i64
  %104 = getelementptr inbounds float, ptr %101, i64 %103
  store float %100, ptr %104, align 4, !tbaa !15
  %105 = load i32, ptr %7, align 4, !tbaa !19
  %106 = icmp ne i32 %105, 1
  br i1 %106, label %107, label %123

107:                                              ; preds = %95
  %108 = load ptr, ptr %9, align 8, !tbaa !243
  %109 = getelementptr inbounds float, ptr %108, i64 0
  %110 = load float, ptr %109, align 4, !tbaa !15
  %111 = load float, ptr %10, align 4, !tbaa !15
  %112 = load ptr, ptr %9, align 8, !tbaa !243
  %113 = getelementptr inbounds float, ptr %112, i64 2
  %114 = load float, ptr %113, align 4, !tbaa !15
  %115 = load ptr, ptr %9, align 8, !tbaa !243
  %116 = getelementptr inbounds float, ptr %115, i64 0
  %117 = load float, ptr %116, align 4, !tbaa !15
  %118 = fsub reassoc nsz arcp contract afn float %114, %117
  %119 = fmul reassoc nsz arcp contract afn float %111, %118
  %120 = fadd reassoc nsz arcp contract afn float %110, %119
  %121 = load ptr, ptr %9, align 8, !tbaa !243
  %122 = getelementptr inbounds float, ptr %121, i64 1
  store float %120, ptr %122, align 4, !tbaa !15
  br label %123

123:                                              ; preds = %107, %95
  %124 = load ptr, ptr %11, align 8, !tbaa !37
  %125 = getelementptr inbounds nuw %struct.dt_iop_rgblevels_gui_data_t, ptr %124, i32 0, i32 21
  store float -1.000000e+00, ptr %125, align 8, !tbaa !133
  %126 = load ptr, ptr getelementptr inbounds nuw (%struct.darktable_t, ptr @darktable, i32 0, i32 9), align 8, !tbaa !51
  %127 = load ptr, ptr %6, align 8, !tbaa !6
  call void @dt_dev_add_history_item(ptr noundef %126, ptr noundef %127, i32 noundef 1)
  %128 = load ptr, ptr %11, align 8, !tbaa !37
  %129 = getelementptr inbounds nuw %struct.dt_iop_rgblevels_gui_data_t, ptr %128, i32 0, i32 2
  %130 = load ptr, ptr %129, align 8, !tbaa !149
  %131 = call i64 @gtk_widget_get_type() #14
  %132 = call ptr @g_type_check_instance_cast(ptr noundef %130, i64 noundef %131)
  call void @gtk_widget_queue_draw(ptr noundef %132)
  store i32 0, ptr %14, align 4
  br label %133

133:                                              ; preds = %123, %27, %23
  call void @llvm.lifetime.end.p0(i64 4, ptr %13) #13
  call void @llvm.lifetime.end.p0(i64 4, ptr %12) #13
  call void @llvm.lifetime.end.p0(i64 8, ptr %11) #13
  %134 = load i32, ptr %14, align 4
  switch i32 %134, label %136 [
    i32 0, label %135
    i32 1, label %135
  ]

135:                                              ; preds = %133, %133
  ret void

136:                                              ; preds = %133
  unreachable
}