; Function Attrs: nounwind uwtable
define internal fastcc void @_rgblevels_move_handle(ptr noundef %0, i32 noundef %1, float noundef %2, ptr noundef %3, float noundef %4) unnamed_addr #1 {
  %6 = getelementptr inbounds nuw i8, ptr %0, i64 704
  %7 = load ptr, ptr %6, align 16, !tbaa !6
  %or.cond = icmp ugt i32 %1, 2
  %8 = icmp eq ptr %3, null
  %or.cond36 = or i1 %or.cond, %8
  br i1 %or.cond36, label %74, label %9

9:                                                ; preds = %5
  switch i32 %1, label %default.unreachable [
    i32 0, label %10
    i32 1, label %43
    i32 2, label %27
  ]

10:                                               ; preds = %9
  %11 = getelementptr inbounds nuw i8, ptr %3, i64 8
  %12 = load float, ptr %11, align 4, !tbaa !37
  %13 = fpext reassoc nsz arcp contract afn float %12 to double
  %14 = fpext reassoc nsz arcp contract afn float %4 to double
  %15 = fdiv reassoc nsz arcp contract afn double 5.000000e-02, %14
  %16 = fsub reassoc nsz arcp contract afn double %13, %15
  %17 = fptrunc reassoc nsz arcp contract afn double %16 to float
  %18 = tail call reassoc nsz arcp contract afn float @llvm.minnum.f32(float %17, float 1.000000e+00)
  %19 = fsub reassoc nsz arcp contract afn float 1.000000e+00, %4
  %20 = fmul reassoc nsz arcp contract afn float %12, %19
  %21 = fpext reassoc nsz arcp contract afn float %20 to double
  %22 = fadd reassoc nsz arcp contract afn double %21, -5.000000e-02
  %23 = fpext reassoc nsz arcp contract afn float %19 to double
  %24 = fdiv reassoc nsz arcp contract afn double %22, %23
  %25 = fptrunc reassoc nsz arcp contract afn double %24 to float
  %26 = tail call reassoc nsz arcp contract afn float @llvm.minnum.f32(float %25, float %18)
  br label %55

27:                                               ; preds = %9
  %28 = fpext reassoc nsz arcp contract afn float %4 to double
  %29 = fdiv reassoc nsz arcp contract afn double 5.000000e-02, %28
  %30 = load float, ptr %3, align 4, !tbaa !37
  %31 = fpext reassoc nsz arcp contract afn float %30 to double
  %32 = fadd reassoc nsz arcp contract afn double %29, %31
  %33 = fptrunc reassoc nsz arcp contract afn double %32 to float
  %34 = tail call reassoc nsz arcp contract afn float @llvm.maxnum.f32(float %33, float 0.000000e+00)
  %35 = fsub reassoc nsz arcp contract afn float 1.000000e+00, %4
  %36 = fmul reassoc nsz arcp contract afn float %30, %35
  %37 = fpext reassoc nsz arcp contract afn float %36 to double
  %38 = fadd reassoc nsz arcp contract afn double %37, 5.000000e-02
  %39 = fpext reassoc nsz arcp contract afn float %35 to double
  %40 = fdiv reassoc nsz arcp contract afn double %38, %39
  %41 = fptrunc reassoc nsz arcp contract afn double %40 to float
  %42 = tail call reassoc nsz arcp contract afn float @llvm.maxnum.f32(float %41, float %34)
  br label %55

default.unreachable:                              ; preds = %9
  unreachable

43:                                               ; preds = %9
  %44 = load float, ptr %3, align 4, !tbaa !37
  %45 = fpext reassoc nsz arcp contract afn float %44 to double
  %46 = fadd reassoc nsz arcp contract afn double %45, 5.000000e-02
  %47 = fptrunc reassoc nsz arcp contract afn double %46 to float
  %48 = getelementptr inbounds nuw i8, ptr %3, i64 8
  %49 = load float, ptr %48, align 4, !tbaa !37
  %50 = fpext reassoc nsz arcp contract afn float %49 to double
  %51 = fadd reassoc nsz arcp contract afn double %50, -5.000000e-02
  %52 = fptrunc reassoc nsz arcp contract afn double %51 to float
  %53 = tail call reassoc nsz arcp contract afn float @llvm.maxnum.f32(float %47, float %2)
  %54 = tail call reassoc nsz arcp contract afn float @llvm.minnum.f32(float %52, float %53)
  br label %66

55:                                               ; preds = %27, %10
  %.033.ph = phi float [ 0.000000e+00, %10 ], [ %42, %27 ]
  %.0.ph = phi float [ %26, %10 ], [ 1.000000e+00, %27 ]
  %56 = tail call reassoc nsz arcp contract afn float @llvm.maxnum.f32(float %.033.ph, float %2)
  %57 = tail call reassoc nsz arcp contract afn float @llvm.minnum.f32(float %.0.ph, float %56)
  %58 = zext nneg i32 %1 to i64
  %59 = getelementptr inbounds nuw float, ptr %3, i64 %58
  store float %57, ptr %59, align 4, !tbaa !37
  %60 = load float, ptr %3, align 4, !tbaa !37
  %61 = getelementptr inbounds nuw i8, ptr %3, i64 8
  %62 = load float, ptr %61, align 4, !tbaa !37
  %63 = fsub reassoc nsz arcp contract afn float %62, %60
  %64 = fmul reassoc nsz arcp contract afn float %63, %4
  %65 = fadd reassoc nsz arcp contract afn float %64, %60
  br label %66

66:                                               ; preds = %43, %55
  %.sink = phi float [ %54, %43 ], [ %65, %55 ]
  %67 = getelementptr inbounds nuw i8, ptr %3, i64 4
  store float %.sink, ptr %67, align 4, !tbaa !37
  %68 = getelementptr inbounds nuw i8, ptr %7, i64 176
  store float -1.000000e+00, ptr %68, align 8, !tbaa !120
  %69 = load ptr, ptr getelementptr inbounds nuw (i8, ptr @darktable, i64 64), align 8, !tbaa !42
  tail call void @dt_dev_add_history_item(ptr noundef %69, ptr noundef nonnull %0, i32 noundef 1) #21
  %70 = getelementptr inbounds nuw i8, ptr %7, i64 56
  %71 = load ptr, ptr %70, align 8, !tbaa !133
  %72 = tail call i64 @gtk_widget_get_type() #23
  %73 = tail call ptr @g_type_check_instance_cast(ptr noundef %71, i64 noundef %72) #21
  tail call void @gtk_widget_queue_draw(ptr noundef %73) #21
  br label %74

74:                                               ; preds = %5, %66
  ret void
}